target datalayout = "e-m:e-p270:32:32-p271:32:32-p272:64:64-i64:64-i128:128-f80:128-n8:16:32:64-S128"
target triple = "x86_64-pc-linux-gnu"

%"class.std::shared_ptr" = type { %"class.std::__shared_ptr" }
%"class.std::__shared_ptr" = type { ptr, %"class.std::__shared_count" }
%"class.std::__shared_count" = type { ptr }
%"class.std::vector" = type { %"struct.std::_Vector_base" }
%"struct.std::_Vector_base" = type { %"struct.std::_Vector_base<open_spiel::State::PlayerAction, std::allocator<open_spiel::State::PlayerAction>>::_Vector_impl" }
%"struct.std::_Vector_base<open_spiel::State::PlayerAction, std::allocator<open_spiel::State::PlayerAction>>::_Vector_impl" = type { %"struct.std::_Vector_base<open_spiel::State::PlayerAction, std::allocator<open_spiel::State::PlayerAction>>::_Vector_impl_data" }
%"struct.std::_Vector_base<open_spiel::State::PlayerAction, std::allocator<open_spiel::State::PlayerAction>>::_Vector_impl_data" = type { ptr, ptr, ptr }
%"class.open_spiel::State" = type <{ ptr, %"class.std::shared_ptr", i32, i32, %"class.std::vector", i32, [4 x i8] }>

; Function Attrs: mustprogress nounwind uwtable
define linkonce_odr noundef i64 @_ZNKSt6vectorIN10open_spiel5State12PlayerActionESaIS2_EE4sizeEv(ptr noundef nonnull align 8 dereferenceable(24) %0) #5 comdat align 2 {
  %2 = alloca ptr, align 8
  store ptr %0, ptr %2, align 8
  %3 = load ptr, ptr %2, align 8
  %4 = getelementptr inbounds nuw %"struct.std::_Vector_base", ptr %3, i32 0, i32 0
  %5 = getelementptr inbounds nuw %"struct.std::_Vector_base<open_spiel::State::PlayerAction, std::allocator<open_spiel::State::PlayerAction>>::_Vector_impl_data", ptr %4, i32 0, i32 1
  %6 = load ptr, ptr %5, align 8
  %7 = getelementptr inbounds nuw %"struct.std::_Vector_base", ptr %3, i32 0, i32 0
  %8 = getelementptr inbounds nuw %"struct.std::_Vector_base<open_spiel::State::PlayerAction, std::allocator<open_spiel::State::PlayerAction>>::_Vector_impl_data", ptr %7, i32 0, i32 0
  %9 = load ptr, ptr %8, align 8
  %10 = ptrtoint ptr %6 to i64
  %11 = ptrtoint ptr %9 to i64
  %12 = sub i64 %10, %11
  %13 = sdiv exact i64 %12, 16
  ret i64 %13
}

; Function Attrs: mustprogress nounwind uwtable
define noundef i32 @_ZNK10open_spiel11tiny_hanabi15TinyHanabiState13CurrentPlayerEv(ptr noundef nonnull align 8 dereferenceable(104) %0) unnamed_addr #5 align 2 {
  %2 = alloca i32, align 4
  %3 = alloca ptr, align 8
  %4 = alloca i32, align 4
  store ptr %0, ptr %3, align 8
  %5 = load ptr, ptr %3, align 8
  %6 = getelementptr inbounds nuw %"class.open_spiel::State", ptr %5, i32 0, i32 4
  %7 = call noundef i64 @_ZNKSt6vectorIN10open_spiel5State12PlayerActionESaIS2_EE4sizeEv(ptr noundef nonnull align 8 dereferenceable(24) %6) #3
  %8 = trunc i64 %7 to i32
  store i32 %8, ptr %4, align 4
  %9 = load i32, ptr %4, align 4
  %10 = getelementptr inbounds nuw %"class.open_spiel::State", ptr %5, i32 0, i32 3
  %11 = load i32, ptr %10, align 4
  %12 = icmp slt i32 %9, %11
  br i1 %12, label %13, label %14

13:                                               ; preds = %1
  store i32 -1, ptr %2, align 4
  br label %26

14:                                               ; preds = %1
  %15 = load i32, ptr %4, align 4
  %16 = getelementptr inbounds nuw %"class.open_spiel::State", ptr %5, i32 0, i32 3
  %17 = load i32, ptr %16, align 4
  %18 = mul nsw i32 2, %17
  %19 = icmp eq i32 %15, %18
  br i1 %19, label %20, label %21

20:                                               ; preds = %14
  store i32 -4, ptr %2, align 4
  br label %26

21:                                               ; preds = %14
  %22 = load i32, ptr %4, align 4
  %23 = getelementptr inbounds nuw %"class.open_spiel::State", ptr %5, i32 0, i32 3
  %24 = load i32, ptr %23, align 4
  %25 = sub nsw i32 %22, %24
  store i32 %25, ptr %2, align 4
  br label %26

26:                                               ; preds = %21, %20, %13
  %27 = load i32, ptr %2, align 4
  ret i32 %27
}