; Function Attrs: mustprogress nofree norecurse nosync nounwind willreturn memory(argmem: read) uwtable
define noundef i32 @_ZNK10open_spiel11tiny_hanabi15TinyHanabiState13CurrentPlayerEv(ptr nocapture noundef nonnull readonly align 8 dereferenceable(104) %0) unnamed_addr #7 align 2 {
  %2 = getelementptr inbounds nuw i8, ptr %0, i64 32
  %3 = getelementptr inbounds i8, ptr %0, i64 40
  %4 = load ptr, ptr %3, align 8
  %5 = load ptr, ptr %2, align 8
  %6 = ptrtoint ptr %4 to i64
  %7 = ptrtoint ptr %5 to i64
  %8 = sub i64 %6, %7
  %9 = lshr exact i64 %8, 4
  %10 = trunc i64 %9 to i32
  %11 = getelementptr inbounds nuw i8, ptr %0, i64 28
  %12 = load i32, ptr %11, align 4
  %13 = icmp sgt i32 %12, %10
  %14 = shl nsw i32 %12, 1
  %15 = icmp eq i32 %14, %10
  %16 = sub nsw i32 %10, %12
  %spec.select = select i1 %15, i32 -4, i32 %16
  %.0 = select i1 %13, i32 -1, i32 %spec.select
  ret i32 %.0
}